Certificate:
    Data:
        Version: 3 (0x2)
        Serial Number: 1 (0x1)
    Signature Algorithm: sha256WithRSAEncryption
        Issuer: CN=devcert
        Validity
            Not Before: Apr 29 18:19:57 2020 GMT
            Not After : Aug  2 18:19:57 2022 GMT
        Subject: CN=localhost
        Subject Public Key Info:
            Public Key Algorithm: rsaEncryption
                Public-Key: (2048 bit)
                Modulus:
                    00:bc:d5:24:43:cd:3f:c5:78:a6:87:77:56:20:40:
                    1e:e0:fc:bf:08:08:95:c6:2f:98:21:0f:79:60:d2:
                    78:f5:5d:06:bf:be:c6:30:7f:32:b5:f4:f6:27:72:
                    76:e2:7a:81:9f:8d:a5:5e:19:01:8f:cf:71:d0:14:
                    77:19:3b:be:af:d9:c8:78:cf:c7:15:16:46:0d:af:
                    b6:fd:a5:fd:2f:72:4d:0e:d9:46:70:2d:8e:17:fd:
                    03:7a:bf:cf:37:47:bd:6a:67:7c:59:f5:79:28:37:
                    30:7a:7e:78:f8:8d:d3:ab:d1:1a:9e:5b:c1:65:4b:
                    25:d9:14:f4:71:9e:d4:f7:3a:56:b3:7f:73:fd:a5:
                    80:fd:ec:d2:1c:58:3e:e3:23:32:88:2a:27:d8:33:
                    65:7d:45:2b:0d:11:bb:8c:66:c6:42:e7:9e:be:dc:
                    be:3a:08:e3:2c:cd:9b:f2:57:0f:3c:e0:36:61:97:
                    2b:d4:0e:f1:43:08:9e:27:40:db:b0:10:f3:18:33:
                    05:90:0d:b5:75:9d:4f:7f:ea:a2:9d:6c:44:dc:17:
                    dc:c0:51:be:5c:6e:48:f3:fe:75:c7:79:98:69:77:
                    36:17:ed:73:e4:aa:72:3b:3c:6a:03:d0:c7:43:13:
                    e5:70:e2:1f:0e:40:e7:0b:b9:74:8e:5f:dd:bf:31:
                    5e:07
                Exponent: 65537 (0x10001)
        X509v3 extensions:
            X509v3 Basic Constraints: critical
                CA:FALSE
            X509v3 Subject Key Identifier: 
                AF:C6:4E:EC:50:02:4F:79:6E:2B:2C:A5:21:02:C4:0F:3D:56:E3:A6
            X509v3 Authority Key Identifier: 
                keyid:68:13:B8:EC:12:AE:34:13:F3:0F:D7:0C:BC:76:18:6F:09:A0:9D:C9
                DirName:/CN=devcert
                serial:CF:6E:58:F0:C8:ED:4D:EC

            X509v3 Key Usage: critical
                Digital Signature, Key Encipherment
            X509v3 Extended Key Usage: 
                TLS Web Server Authentication
            X509v3 Subject Alternative Name: 
                DNS:localhost, DNS:*.localhost
    Signature Algorithm: sha256WithRSAEncryption
         75:e5:9e:13:7c:12:7d:56:e5:f8:46:83:09:91:ec:2e:54:a9:
         e5:7c:8c:00:54:35:dd:2a:52:c8:64:25:d1:13:9a:b7:bb:5e:
         e0:cd:a9:db:29:f2:78:d9:11:8b:98:b7:8d:d1:ab:e8:dc:81:
         45:2d:b8:71:c8:6f:9a:73:7c:f2:0c:af:8e:86:e5:94:87:7c:
         ef:7d:a1:0c:f8:30:10:4e:18:9e:68:49:42:6b:3e:d0:f6:42:
         10:76:de:df:1e:99:97:f4:30:7d:fc:9b:4e:94:d8:9c:28:d7:
         1d:39:fe:11:0e:0a:97:90:a9:32:d5:fd:d3:fd:4c:31:c6:52:
         dc:5c:10:fa:e5:59:f8:7c:90:b4:11:84:dd:f1:22:f8:08:4d:
         35:3f:37:1a:df:b8:64:2d:82:07:ab:ce:ae:1d:a6:78:19:ac:
         85:7a:91:80:b3:60:86:09:3a:2f:0b:cf:e3:77:e1:aa:62:70:
         fa:e9:3b:94:8b:70:a4:96:43:7a:af:65:87:32:4e:87:5f:c4:
         05:98:59:fb:ea:03:e1:ec:ec:83:16:77:9e:80:30:86:d2:8c:
         56:c7:6e:63:0e:3f:b9:3e:f7:d8:04:72:f8:5b:7e:fc:82:51:
         52:bc:e8:df:a1:c6:b8:9d:3f:50:ee:7f:3c:ac:31:49:b1:62:
         86:2b:30:ea
-----BEGIN CERTIFICATE-----
MIIDXjCCAkagAwIBAgIBATANBgkqhkiG9w0BAQsFADASMRAwDgYDVQQDDAdkZXZj
ZXJ0MB4XDTIwMDQyOTE4MTk1N1oXDTIyMDgwMjE4MTk1N1owFDESMBAGA1UEAwwJ
bG9jYWxob3N0MIIBIjANBgkqhkiG9w0BAQEFAAOCAQ8AMIIBCgKCAQEAvNUkQ80/
xXimh3dWIEAe4Py/CAiVxi+YIQ95YNJ49V0Gv77GMH8ytfT2J3J24nqBn42lXhkB
j89x0BR3GTu+r9nIeM/HFRZGDa+2/aX9L3JNDtlGcC2OF/0Der/PN0e9amd8WfV5
KDcwen54+I3Tq9EanlvBZUsl2RT0cZ7U9zpWs39z/aWA/ezSHFg+4yMyiCon2DNl
fUUrDRG7jGbGQueevty+OgjjLM2b8lcPPOA2YZcr1A7xQwieJ0DbsBDzGDMFkA21
dZ1Pf+qinWxE3BfcwFG+XG5I8/51x3mYaXc2F+1z5KpyOzxqA9DHQxPlcOIfDkDn
C7l0jl/dvzFeBwIDAQABo4G8MIG5MAwGA1UdEwEB/wQCMAAwHQYDVR0OBBYEFK/G
TuxQAk95bisspSECxA89VuOmMEIGA1UdIwQ7MDmAFGgTuOwSrjQT8w/XDLx2GG8J
oJ3JoRakFDASMRAwDgYDVQQDDAdkZXZjZXJ0ggkAz25Y8MjtTewwDgYDVR0PAQH/
BAQDAgWgMBMGA1UdJQQMMAoGCCsGAQUFBwMBMCEGA1UdEQQaMBiCCWxvY2FsaG9z
dIILKi5sb2NhbGhvc3QwDQYJKoZIhvcNAQELBQADggEBAHXlnhN8En1W5fhGgwmR
7C5UqeV8jABUNd0qUshkJdETmre7XuDNqdsp8njZEYuYt43Rq+jcgUUtuHHIb5pz
fPIMr46G5ZSHfO99oQz4MBBOGJ5oSUJrPtD2QhB23t8emZf0MH38m06U2Jwo1x05
/hEOCpeQqTLV/dP9TDHGUtxcEPrlWfh8kLQRhN3xIvgITTU/NxrfuGQtggerzq4d
pngZrIV6kYCzYIYJOi8Lz+N34apicPrpO5SLcKSWQ3qvZYcyTodfxAWYWfvqA+Hs
7IMWd56AMIbSjFbHbmMOP7k+99gEcvhbfvyCUVK86N+hxridP1DufzysMUmxYoYr
MOo=
-----END CERTIFICATE-----
